 libxmlrpc_util

 Timestamp is 4f994acc (Thu Apr 26 14:17:00 2012)

 Preferred load address is 10000000

 Start         Length     Name                   Class
 0001:00000000 00001984H .text                   CODE
 0002:00000000 000000c4H .idata$5                DATA
 0002:000000c4 00000004H .CRT$XCA                DATA
 0002:000000c8 00000004H .CRT$XCZ                DATA
 0002:000000cc 00000004H .CRT$XIA                DATA
 0002:000000d0 00000004H .CRT$XIAA               DATA
 0002:000000d4 00000004H .CRT$XIZ                DATA
 0002:000000d8 00000530H .rdata                  DATA
 0002:00000610 00000004H .rdata$sxdata           DATA
 0002:00000614 00000004H .rtc$IAA                DATA
 0002:00000618 00000004H .rtc$IZZ                DATA
 0002:0000061c 00000004H .rtc$TAA                DATA
 0002:00000620 00000004H .rtc$TZZ                DATA
 0002:00000628 00000064H .xdata$x                DATA
 0002:0000068c 0000003cH .idata$2                DATA
 0002:000006c8 00000014H .idata$3                DATA
 0002:000006dc 000000c4H .idata$4                DATA
 0002:000007a0 00000310H .idata$6                DATA
 0002:00000ab0 000004daH .edata                  DATA
 0003:00000000 00000158H .data                   DATA
 0003:00000158 00000348H .bss                    DATA

  Address         Publics by Value              Rva+Base       Lib:Object

 0000:00000000       __except_list              00000000     <absolute>
 0000:00000001       ___safe_se_handler_count   00000001     <absolute>
 0000:00009876       __fltused                  00009876     <absolute>
 0000:00009876       __ldused                   00009876     <absolute>
 0000:00000000       ___ImageBase               10000000     <linker-defined>
 0001:00000090       _xmlrpc_strnomem           10001090 f   asprintf.obj
 0001:000000b0       _xmlrpc_strnomemval        100010b0 f   asprintf.obj
 0001:000000c0       _xmlrpc_vasprintf          100010c0 f   asprintf.obj
 0001:00000100       _xmlrpc_asprintf           10001100 f   asprintf.obj
 0001:00000120       _xmlrpc_strdupsol          10001120 f   asprintf.obj
 0001:00000140       _xmlrpc_strfree            10001140 f   asprintf.obj
 0001:00000160       _xmlrpc_strdupnull         10001160 f   asprintf.obj
 0001:00000180       _xmlrpc_strfreenull        10001180 f   asprintf.obj
 0001:000001a0       _xmlrpc_base64Encode       100011a0 f   base64.obj
 0001:00000270       _xmlrpc_assertion_failed   10001270 f   error.obj
 0001:000002a0       _xmlrpc_env_init           100012a0 f   error.obj
 0001:000002c0       _xmlrpc_env_clean          100012c0 f   error.obj
 0001:000002f0       _xmlrpc_env_set_fault      100012f0 f   error.obj
 0001:00000340       _xmlrpc_set_fault_formatted_v 10001340 f   error.obj
 0001:00000380       _xmlrpc_env_set_fault_formatted 10001380 f   error.obj
 0001:000003a0       _xmlrpc_faultf             100013a0 f   error.obj
 0001:000003c0       _xmlrpc_makePrintable_lp   100013c0 f   make_printable.obj
 0001:000004a0       _xmlrpc_makePrintable      100014a0 f   make_printable.obj
 0001:000004d0       _xmlrpc_makePrintableChar  100014d0 f   make_printable.obj
 0001:00000500       _xmlrpc_mem_block_init     10001500 f   memblock.obj
 0001:00000550       _xmlrpc_mem_block_clean    10001550 f   memblock.obj
 0001:00000570       _xmlrpc_mem_block_size     10001570 f   memblock.obj
 0001:00000580       _xmlrpc_mem_block_contents 10001580 f   memblock.obj
 0001:00000590       _xmlrpc_mem_block_resize   10001590 f   memblock.obj
 0001:00000630       _xmlrpc_mem_block_append   10001630 f   memblock.obj
 0001:00000670       _xmlrpc_mem_block_new      10001670 f   memblock.obj
 0001:000006d0       _xmlrpc_mem_block_free     100016d0 f   memblock.obj
 0001:000006f0       _xmlrpc_pselect            100016f0 f   select.obj
 0001:00000730       _xmlrpc_millisecond_sleep  10001730 f   sleep.obj
 0001:00000750       _xmlrpc_parse_int64        10001750 f   string_number.obj
 0001:000008b0       _xmlrpc_gettimeofday       100018b0 f   time.obj
 0001:00000900       _xmlrpc_timegm             10001900 f   time.obj
 0001:00000a30       _xmlrpc_localtime          10001a30 f   time.obj
 0001:00000a60       _xmlrpc_gmtime             10001a60 f   time.obj
 0001:00000d60       _xmlrpc_utf8_to_wcs        10001d60 f   utf8.obj
 0001:00000de0       _xmlrpc_wcs_to_utf8        10001de0 f   utf8.obj
 0001:00000f00       _xmlrpc_force_to_utf8      10001f00 f   utf8.obj
 0001:00000ff0       _xmlrpc_force_to_xml_chars 10001ff0 f   utf8.obj
 0001:00001050       _xmlrpc_validate_utf8      10002050 f   utf8.obj
 0001:000010ac       _select@20                 100020ac f   ws2_32:WS2_32.dll
 0001:000010b2       _memcpy                    100020b2 f   MSVCRT:MSVCR100.dll
 0001:000010c0       __allmul                   100020c0 f   MSVCRT:llmul.obj
 0001:00001142       __CRT_INIT@12              10002142 f   MSVCRT:crtdll.obj
 0001:00001462       __DllMainCRTStartup@12     10002462 f   MSVCRT:crtdll.obj
 0001:00001485       ___clean_type_info_names   10002485 f   MSVCRT:tncleanup.obj
 0001:00001491       __onexit                   10002491 f   MSVCRT:atonexit.obj
 0001:00001532       _atexit                    10002532 f   MSVCRT:atonexit.obj
 0001:00001549       __RTC_Initialize           10002549 f   MSVCRT:_initsect_.obj
 0001:0000156f       __RTC_Terminate            1000256f f   MSVCRT:_initsect_.obj
 0001:000015a0       __ValidateImageBase        100025a0 f   MSVCRT:pesect.obj
 0001:000015e0       __FindPESection            100025e0 f   MSVCRT:pesect.obj
 0001:00001630       __IsNonwritableInCurrentImage 10002630 f   MSVCRT:pesect.obj
 0001:000016ec       __initterm                 100026ec f   MSVCRT:MSVCR100.dll
 0001:000016f2       __initterm_e               100026f2 f   MSVCRT:MSVCR100.dll
 0001:000016f8       __amsg_exit                100026f8 f   MSVCRT:MSVCR100.dll
 0001:000016fe       ___CppXcptFilter           100026fe f   MSVCRT:MSVCR100.dll
 0001:00001704       _DllMain@12                10002704 f   MSVCRT:dllmain.obj
 0001:00001730       __SEH_prolog4              10002730 f   MSVCRT:sehprolg4.obj
 0001:00001775       __SEH_epilog4              10002775 f   MSVCRT:sehprolg4.obj
 0001:00001789       __except_handler4          10002789 f   MSVCRT:chandler4gs.obj
 0001:000017ae       ___security_init_cookie    100027ae f   MSVCRT:gs_support.obj
 0001:0000184a       ___clean_type_info_names_internal 1000284a f   MSVCRT:MSVCR100.dll
 0001:00001850       __unlock                   10002850 f   MSVCRT:MSVCR100.dll
 0001:00001856       ___dllonexit               10002856 f   MSVCRT:MSVCR100.dll
 0001:0000185c       __lock                     1000285c f   MSVCRT:MSVCR100.dll
 0001:00001862       @__security_check_cookie@4 10002862 f   MSVCRT:secchk.obj
 0001:00001872       __except_handler4_common   10002872 f   MSVCRT:MSVCR100.dll
 0001:00001878       ___report_gsfailure        10002878 f   MSVCRT:gs_report.obj
 0001:0000197e       __crt_debugger_hook        1000297e f   MSVCRT:MSVCR100.dll
 0002:00000000       __imp__SetUnhandledExceptionFilter@4 10003000     kernel32:KERNEL32.dll
 0002:00000004       __imp__IsDebuggerPresent@0 10003004     kernel32:KERNEL32.dll
 0002:00000008       __imp__SleepEx@8           10003008     kernel32:KERNEL32.dll
 0002:0000000c       __imp__GetSystemTimeAsFileTime@4 1000300c     kernel32:KERNEL32.dll
 0002:00000010       __imp__GetCurrentProcess@0 10003010     kernel32:KERNEL32.dll
 0002:00000014       __imp__TerminateProcess@8  10003014     kernel32:KERNEL32.dll
 0002:00000018       __imp__GetCurrentProcessId@0 10003018     kernel32:KERNEL32.dll
 0002:0000001c       __imp__GetCurrentThreadId@0 1000301c     kernel32:KERNEL32.dll
 0002:00000020       __imp__GetTickCount@0      10003020     kernel32:KERNEL32.dll
 0002:00000024       __imp__QueryPerformanceCounter@4 10003024     kernel32:KERNEL32.dll
 0002:00000028       __imp__DisableThreadLibraryCalls@4 10003028     kernel32:KERNEL32.dll
 0002:0000002c       __imp__InterlockedCompareExchange@12 1000302c     kernel32:KERNEL32.dll
 0002:00000030       __imp__Sleep@4             10003030     kernel32:KERNEL32.dll
 0002:00000034       __imp__InterlockedExchange@8 10003034     kernel32:KERNEL32.dll
 0002:00000038       __imp__DecodePointer@4     10003038     kernel32:KERNEL32.dll
 0002:0000003c       __imp__EncodePointer@4     1000303c     kernel32:KERNEL32.dll
 0002:00000040       __imp__UnhandledExceptionFilter@4 10003040     kernel32:KERNEL32.dll
 0002:00000044       \177KERNEL32_NULL_THUNK_DATA 10003044     kernel32:KERNEL32.dll
 0002:00000048       __imp___localtime64        10003048     MSVCRT:MSVCR100.dll
 0002:0000004c       __imp___malloc_crt         1000304c     MSVCRT:MSVCR100.dll
 0002:00000050       __imp___encoded_null       10003050     MSVCRT:MSVCR100.dll
 0002:00000054       __imp___initterm           10003054     MSVCRT:MSVCR100.dll
 0002:00000058       __imp___initterm_e         10003058     MSVCRT:MSVCR100.dll
 0002:0000005c       __imp___gmtime64           1000305c     MSVCRT:MSVCR100.dll
 0002:00000060       __imp___strdup             10003060     MSVCRT:MSVCR100.dll
 0002:00000060       __imp__strdup              10003060     MSVCRT:MSVCR100.dll
 0002:00000064       __imp____clean_type_info_names_internal 10003064     MSVCRT:MSVCR100.dll
 0002:00000068       __imp___unlock             10003068     MSVCRT:MSVCR100.dll
 0002:0000006c       __imp____dllonexit         1000306c     MSVCRT:MSVCR100.dll
 0002:00000070       __imp___lock               10003070     MSVCRT:MSVCR100.dll
 0002:00000074       __imp___onexit             10003074     MSVCRT:MSVCR100.dll
 0002:00000078       __imp___except_handler4_common 10003078     MSVCRT:MSVCR100.dll
 0002:0000007c       __imp___crt_debugger_hook  1000307c     MSVCRT:MSVCR100.dll
 0002:00000080       __imp___errno              10003080     MSVCRT:MSVCR100.dll
 0002:00000084       __imp___strtoui64          10003084     MSVCRT:MSVCR100.dll
 0002:00000088       __imp__strerror            10003088     MSVCRT:MSVCR100.dll
 0002:0000008c       __imp__memcpy              1000308c     MSVCRT:MSVCR100.dll
 0002:00000090       __imp__isprint             10003090     MSVCRT:MSVCR100.dll
 0002:00000094       __imp___snprintf           10003094     MSVCRT:MSVCR100.dll
 0002:00000098       __imp____iob_func          10003098     MSVCRT:MSVCR100.dll
 0002:0000009c       __imp__fprintf             1000309c     MSVCRT:MSVCR100.dll
 0002:000000a0       __imp__abort               100030a0     MSVCRT:MSVCR100.dll
 0002:000000a4       __imp__malloc              100030a4     MSVCRT:MSVCR100.dll
 0002:000000a8       __imp__free                100030a8     MSVCRT:MSVCR100.dll
 0002:000000ac       __imp___vsnprintf          100030ac     MSVCRT:MSVCR100.dll
 0002:000000b0       __imp___amsg_exit          100030b0     MSVCRT:MSVCR100.dll
 0002:000000b4       __imp____CppXcptFilter     100030b4     MSVCRT:MSVCR100.dll
 0002:000000b8       \177MSVCR100_NULL_THUNK_DATA 100030b8     MSVCRT:MSVCR100.dll
 0002:000000bc       __imp__select@20           100030bc     ws2_32:WS2_32.dll
 0002:000000c0       \177WS2_32_NULL_THUNK_DATA 100030c0     ws2_32:WS2_32.dll
 0002:000000c4       ___xc_a                    100030c4     MSVCRT:cinitexe.obj
 0002:000000c8       ___xc_z                    100030c8     MSVCRT:cinitexe.obj
 0002:000000cc       ___xi_a                    100030cc     MSVCRT:cinitexe.obj
 0002:000000d4       ___xi_z                    100030d4     MSVCRT:cinitexe.obj
 0002:000000d8       ??_C@_0CG@OMLFHLOM@?$FLinsufficient?5memory?5to?5build?5st@ 100030d8     asprintf.obj
 0002:00000104       ??_C@_0CE@JHHIKLHJ@Not?5enough?5memory?5for?5error?5mess@ 10003104     error.obj
 0002:0000012c       ??_C@_0BJ@NDNDNLMB@?$CFs?3?$CFd?3?5assertion?5failed?6?$AA@ 1000312c     error.obj
 0002:00000148       ??_C@_06FIJELGDL@?2x?$CF02x?$AA@ 10003148     make_printable.obj
 0002:00000150       ??_C@_02LKFOMHMK@?20?$AA@  10003150     make_printable.obj
 0002:00000154       ??_C@_0CE@KFAOOCGG@Can?8t?5allocate?5?$CFu?9byte?5memory?5bl@ 10003154     memblock.obj
 0002:00000178       ??_C@_0BK@IGNGHOCK@Can?8t?5resize?5memory?5block?$AA@ 10003178     memblock.obj
 0002:00000194       ??_C@_0BH@GLMCCGBN@Memory?5block?5too?5large?$AA@ 10003194     memblock.obj
 0002:000001ac       ??_C@_0BM@DOMELPPH@Can?8t?5allocate?5memory?5block?$AA@ 100031ac     memblock.obj
 0002:000001c8       ??_C@_0CC@EKFGOLBO@contains?5non?9numerical?5junk?3?5?8?$CFs@ 100031c8     string_number.obj
 0002:000001ec       ??_C@_0DG@LCBAMHHM@unexpected?5error?3?5strtoll?$CI?$CJ?5fail@ 100031ec     string_number.obj
 0002:00000228       ??_C@_0EP@NIIEAMHN@Number?5cannot?5be?5represented?5in?5@ 10003228     string_number.obj
 0002:000002a8       __real@41f0000000000000    100032a8     time.obj
 0002:000002b0       __real@41cdcd6500000000    100032b0     time.obj
 0002:000002b8       ??_C@_0EC@NGLOLAPA@Invalid?5time?5specification?$DL?5a?5me@ 100032b8     time.obj
 0002:00000318       ??_C@_0FK@EICDPHOK@UTF?98?5multibyte?5sequence?5contain@ 10003318     utf8.obj
 0002:00000378       ??_C@_0EG@FNBIIPPC@UTF?916?5surrogates?5may?5not?5appear@ 10003378     utf8.obj
 0002:000003c0       ??_C@_0DP@JDHPDKKJ@UCS?92?5characters?5?$DO?5U?$CLFFFD?5are?5il@ 100033c0     utf8.obj
 0002:00000400       ??_C@_0CE@MLNMJCDE@Overlong?5UTF?98?5sequence?5not?5allo@ 10003400     utf8.obj
 0002:00000424       ??_C@_0DE@KGPALEMC@Internal?5error?3?5Impossible?5UTF?98@ 10003424     utf8.obj
 0002:00000458       ??_C@_0FK@NMIPMNJH@UTF?98?5string?5contains?5a?5characte@ 10003458     utf8.obj
 0002:000004b8       ??_C@_0FO@JCHLKAK@Invalid?5UTF?98?5sequence?5indicates@ 100034b8     utf8.obj
 0002:00000518       ??_C@_0CN@OOOPDPPA@Unrecognized?5UTF?98?5initial?5byte?5@ 10003518     utf8.obj
 0002:00000548       ??_C@_0CO@OLGFJHHM@Don?8t?5know?5how?5to?5encode?5UCS?94?5c@ 10003548     utf8.obj
 0002:00000578       ??_C@_0DJ@GIFAAKMN@?$CFI64d?9byte?5supposed?5UTF?98?5string@ 10003578     utf8.obj
 0002:000005b4       __pDefaultRawDllMain       100035b4     MSVCRT:crtdll.obj
 0002:000005b4       __pRawDllMain              100035b4     MSVCRT:crtdll.obj
 0002:000005c0       __load_config_used         100035c0     MSVCRT:loadcfg.obj
 0002:00000610       ___safe_se_handler_table   10003610     <linker-defined>
 0002:00000614       ___rtc_iaa                 10003614     MSVCRT:_initsect_.obj
 0002:00000618       ___rtc_izz                 10003618     MSVCRT:_initsect_.obj
 0002:0000061c       ___rtc_taa                 1000361c     MSVCRT:_initsect_.obj
 0002:00000620       ___rtc_tzz                 10003620     MSVCRT:_initsect_.obj
 0002:0000068c       __IMPORT_DESCRIPTOR_WS2_32 1000368c     ws2_32:WS2_32.dll
 0002:000006a0       __IMPORT_DESCRIPTOR_KERNEL32 100036a0     kernel32:KERNEL32.dll
 0002:000006b4       __IMPORT_DESCRIPTOR_MSVCR100 100036b4     MSVCRT:MSVCR100.dll
 0002:000006c8       __NULL_IMPORT_DESCRIPTOR   100036c8     ws2_32:WS2_32.dll
 0003:00000140       ___native_dllmain_reason   10004140     MSVCRT:natstart.obj
 0003:00000144       ___native_vcclrit_reason   10004144     MSVCRT:natstart.obj
 0003:00000150       ___security_cookie         10004150     MSVCRT:gs_cookie.obj
 0003:00000154       ___security_cookie_complement 10004154     MSVCRT:gs_cookie.obj
 0003:0000015c       ?__type_info_root_node@@3U__type_info_node@@A 1000415c     MSVCRT:tncleanup.obj
 0003:0000048c       ___native_startup_state    1000448c     <common>
 0003:00000490       ___native_startup_lock     10004490     <common>
 0003:00000494       ___onexitend               10004494     <common>
 0003:00000498       ___onexitbegin             10004498     <common>
 0003:0000049c       ___dyn_tls_init_callback   1000449c     <common>

 entry point at        0001:00001462

 Static symbols

 0001:00000000       _simpleVasprintf           10001000 f   asprintf.obj
 0001:00000810       _gettimeofdayWindows       10001810 f   time.obj
 0001:000008c0       _isLeapYear                100018c0 f   time.obj
 0001:00000a90       _validateContinuation      10001a90 f   utf8.obj
 0001:00000ac0       _validateUtf16             10001ac0 f   utf8.obj
 0001:00000b10       _decodeMultibyte           10001b10 f   utf8.obj
 0001:00000c70       _decodeUtf8                10001c70 f   utf8.obj
 0001:000010f4       _pre_c_init                100020f4 f   MSVCRT:crtdll.obj
 0001:0000134c       ___DllMainCRTStartup       1000234c f   MSVCRT:crtdll.obj

 Exports

  ordinal    name

        1    _xmlrpc_asprintf
               exported name: xmlrpc_asprintf
        2    _xmlrpc_assertion_failed
               exported name: xmlrpc_assertion_failed
        3    _xmlrpc_base64Encode
               exported name: xmlrpc_base64Encode
        4    _xmlrpc_env_clean
               exported name: xmlrpc_env_clean
        5    _xmlrpc_env_init
               exported name: xmlrpc_env_init
        6    _xmlrpc_env_set_fault
               exported name: xmlrpc_env_set_fault
        7    _xmlrpc_env_set_fault_formatted
               exported name: xmlrpc_env_set_fault_formatted
        8    _xmlrpc_faultf
               exported name: xmlrpc_faultf
        9    _xmlrpc_force_to_utf8
               exported name: xmlrpc_force_to_utf8
       10    _xmlrpc_force_to_xml_chars
               exported name: xmlrpc_force_to_xml_chars
       11    _xmlrpc_gettimeofday
               exported name: xmlrpc_gettimeofday
       12    _xmlrpc_gmtime
               exported name: xmlrpc_gmtime
       13    _xmlrpc_localtime
               exported name: xmlrpc_localtime
       14    _xmlrpc_makePrintable
               exported name: xmlrpc_makePrintable
       15    _xmlrpc_makePrintableChar
               exported name: xmlrpc_makePrintableChar
       16    _xmlrpc_makePrintable_lp
               exported name: xmlrpc_makePrintable_lp
       17    _xmlrpc_mem_block_append
               exported name: xmlrpc_mem_block_append
       18    _xmlrpc_mem_block_clean
               exported name: xmlrpc_mem_block_clean
       19    _xmlrpc_mem_block_contents
               exported name: xmlrpc_mem_block_contents
       20    _xmlrpc_mem_block_free
               exported name: xmlrpc_mem_block_free
       21    _xmlrpc_mem_block_init
               exported name: xmlrpc_mem_block_init
       22    _xmlrpc_mem_block_new
               exported name: xmlrpc_mem_block_new
       23    _xmlrpc_mem_block_resize
               exported name: xmlrpc_mem_block_resize
       24    _xmlrpc_mem_block_size
               exported name: xmlrpc_mem_block_size
       25    _xmlrpc_millisecond_sleep
               exported name: xmlrpc_millisecond_sleep
       26    _xmlrpc_parse_int64
               exported name: xmlrpc_parse_int64
       27    _xmlrpc_pselect
               exported name: xmlrpc_pselect
       28    _xmlrpc_set_fault_formatted_v
               exported name: xmlrpc_set_fault_formatted_v
       29    _xmlrpc_strdupnull
               exported name: xmlrpc_strdupnull
       30    _xmlrpc_strdupsol
               exported name: xmlrpc_strdupsol
       31    _xmlrpc_strfree
               exported name: xmlrpc_strfree
       32    _xmlrpc_strfreenull
               exported name: xmlrpc_strfreenull
       33    _xmlrpc_strnomem
               exported name: xmlrpc_strnomem
       34    _xmlrpc_strnomemval
               exported name: xmlrpc_strnomemval
       35    _xmlrpc_timegm
               exported name: xmlrpc_timegm
       36    _xmlrpc_utf8_to_wcs
               exported name: xmlrpc_utf8_to_wcs
       37    _xmlrpc_validate_utf8
               exported name: xmlrpc_validate_utf8
       38    _xmlrpc_vasprintf
               exported name: xmlrpc_vasprintf
       39    _xmlrpc_wcs_to_utf8
               exported name: xmlrpc_wcs_to_utf8
